target datalayout = "e-m:e-p270:32:32-p271:32:32-p272:64:64-i64:64-i128:128-f80:128-n8:16:32:64-S128"
target triple = "x86_64-pc-linux-gnu"

%struct.archive_write = type { %struct.archive, i32, i64, i64, ptr, i64, ptr, ptr, ptr, ptr, ptr, i32, i32, ptr, ptr, ptr, ptr, ptr, ptr, ptr, ptr, ptr, ptr, ptr, ptr, ptr, ptr }
%struct.archive = type { i32, i32, ptr, i32, ptr, i32, i32, ptr, %struct.archive_string, ptr, i32, i32, ptr, ptr, i64, i64, i64, i8, i64 }
%struct.archive_string = type { ptr, i64, i64 }
%struct.ar_w = type { i64, i64, i32, i32, i8, ptr }

@.str.28 = private unnamed_addr constant [36 x i8] c"Entry remaining bytes larger than 0\00", align 1
@.str.29 = private unnamed_addr constant [41 x i8] c"Padding wrong size: %ju should be 1 or 0\00", align 1
@.str.30 = private unnamed_addr constant [2 x i8] c"\0A\00", align 1

; Function Attrs: nounwind uwtable
define internal i32 @archive_write_ar_finish_entry(ptr noundef %0) #0 {
  %2 = alloca i32, align 4
  %3 = alloca ptr, align 8
  %4 = alloca ptr, align 8
  %5 = alloca i32, align 4
  %6 = alloca i32, align 4
  store ptr %0, ptr %3, align 8, !tbaa !9
  call void @llvm.lifetime.start.p0(i64 8, ptr %4) #9
  call void @llvm.lifetime.start.p0(i64 4, ptr %5) #9
  %7 = load ptr, ptr %3, align 8, !tbaa !9
  %8 = getelementptr inbounds nuw %struct.archive_write, ptr %7, i32 0, i32 15
  %9 = load ptr, ptr %8, align 8, !tbaa !26
  store ptr %9, ptr %4, align 8, !tbaa !24
  %10 = load ptr, ptr %4, align 8, !tbaa !24
  %11 = getelementptr inbounds nuw %struct.ar_w, ptr %10, i32 0, i32 0
  %12 = load i64, ptr %11, align 8, !tbaa !42
  %13 = icmp ne i64 %12, 0
  br i1 %13, label %14, label %17

14:                                               ; preds = %1
  %15 = load ptr, ptr %3, align 8, !tbaa !9
  %16 = getelementptr inbounds nuw %struct.archive_write, ptr %15, i32 0, i32 0
  call void (ptr, i32, ptr, ...) @archive_set_error(ptr noundef %16, i32 noundef -1, ptr noundef @.str.28)
  store i32 -20, ptr %2, align 4
  store i32 1, ptr %6, align 4
  br label %38

17:                                               ; preds = %1
  %18 = load ptr, ptr %4, align 8, !tbaa !24
  %19 = getelementptr inbounds nuw %struct.ar_w, ptr %18, i32 0, i32 1
  %20 = load i64, ptr %19, align 8, !tbaa !43
  %21 = icmp eq i64 %20, 0
  br i1 %21, label %22, label %23

22:                                               ; preds = %17
  store i32 0, ptr %2, align 4
  store i32 1, ptr %6, align 4
  br label %38

23:                                               ; preds = %17
  %24 = load ptr, ptr %4, align 8, !tbaa !24
  %25 = getelementptr inbounds nuw %struct.ar_w, ptr %24, i32 0, i32 1
  %26 = load i64, ptr %25, align 8, !tbaa !43
  %27 = icmp ne i64 %26, 1
  br i1 %27, label %28, label %34

28:                                               ; preds = %23
  %29 = load ptr, ptr %3, align 8, !tbaa !9
  %30 = getelementptr inbounds nuw %struct.archive_write, ptr %29, i32 0, i32 0
  %31 = load ptr, ptr %4, align 8, !tbaa !24
  %32 = getelementptr inbounds nuw %struct.ar_w, ptr %31, i32 0, i32 1
  %33 = load i64, ptr %32, align 8, !tbaa !43
  call void (ptr, i32, ptr, ...) @archive_set_error(ptr noundef %30, i32 noundef -1, ptr noundef @.str.29, i64 noundef %33)
  store i32 -20, ptr %2, align 4
  store i32 1, ptr %6, align 4
  br label %38

34:                                               ; preds = %23
  %35 = load ptr, ptr %3, align 8, !tbaa !9
  %36 = call i32 @__archive_write_output(ptr noundef %35, ptr noundef @.str.30, i64 noundef 1)
  store i32 %36, ptr %5, align 4, !tbaa !11
  %37 = load i32, ptr %5, align 4, !tbaa !11
  store i32 %37, ptr %2, align 4
  store i32 1, ptr %6, align 4
  br label %38

38:                                               ; preds = %34, %28, %22, %14
  call void @llvm.lifetime.end.p0(i64 4, ptr %5) #9
  call void @llvm.lifetime.end.p0(i64 8, ptr %4) #9
  %39 = load i32, ptr %2, align 4
  ret i32 %39
}