; Function Attrs: nounwind uwtable
define internal i32 @archive_write_ar_finish_entry(ptr noundef %0) #0 {
  %2 = getelementptr inbounds nuw i8, ptr %0, i64 248
  %3 = load ptr, ptr %2, align 8, !tbaa !17
  %4 = load i64, ptr %3, align 8, !tbaa !34
  %.not = icmp eq i64 %4, 0
  br i1 %.not, label %6, label %5

5:                                                ; preds = %1
  tail call void (ptr, i32, ptr, ...) @archive_set_error(ptr noundef nonnull %0, i32 noundef -1, ptr noundef nonnull @.str.28) #12
  br label %12

6:                                                ; preds = %1
  %7 = getelementptr inbounds nuw i8, ptr %3, i64 8
  %8 = load i64, ptr %7, align 8, !tbaa !35
  switch i64 %8, label %9 [
    i64 0, label %12
    i64 1, label %10
  ]

9:                                                ; preds = %6
  tail call void (ptr, i32, ptr, ...) @archive_set_error(ptr noundef nonnull %0, i32 noundef -1, ptr noundef nonnull @.str.29, i64 noundef %8) #12
  br label %12

10:                                               ; preds = %6
  %11 = tail call i32 @__archive_write_output(ptr noundef nonnull %0, ptr noundef nonnull @.str.30, i64 noundef 1) #12
  br label %12

12:                                               ; preds = %6, %10, %9, %5
  %.0 = phi i32 [ -20, %5 ], [ -20, %9 ], [ %11, %10 ], [ 0, %6 ]
  ret i32 %.0
}